target datalayout = "e-m:e-p270:32:32-p271:32:32-p272:64:64-i64:64-i128:128-f80:128-n8:16:32:64-S128"
target triple = "x86_64-pc-linux-gnu"

%"struct.cv::legacy::tracking::TrackerBoosting::Params" = type { i32, float, float, i32, i32 }
%"class.std::__shared_count" = type { ptr }
%"class.cv::legacy::tracking::TrackerBoostingImpl" = type <{ %"class.cv::legacy::tracking::TrackerBoosting", %"struct.cv::legacy::tracking::TrackerBoosting::Params", [4 x i8] }>
%"class.cv::legacy::tracking::TrackerBoosting" = type { %"class.cv::legacy::tracking::Tracker" }
%"class.cv::legacy::tracking::Tracker" = type { %"class.cv::Algorithm", i8, %"struct.cv::Ptr.8", %"struct.cv::Ptr.12", %"struct.cv::Ptr.16" }
%"class.cv::Algorithm" = type { ptr }
%"struct.cv::Ptr.8" = type { %"class.std::shared_ptr.9" }
%"class.std::shared_ptr.9" = type { %"class.std::__shared_ptr.10" }
%"class.std::__shared_ptr.10" = type { ptr, %"class.std::__shared_count" }
%"struct.cv::Ptr.12" = type { %"class.std::shared_ptr.13" }
%"class.std::shared_ptr.13" = type { %"class.std::__shared_ptr.14" }
%"class.std::__shared_ptr.14" = type { ptr, %"class.std::__shared_count" }
%"struct.cv::Ptr.16" = type { %"class.std::shared_ptr.17" }
%"class.std::shared_ptr.17" = type { %"class.std::__shared_ptr.18" }
%"class.std::__shared_ptr.18" = type { ptr, %"class.std::__shared_count" }

; Function Attrs: inlinehint mustprogress uwtable
define linkonce_odr hidden void @_ZN2cv6legacy8tracking15TrackerBoostingC2Ev(ptr noundef nonnull align 8 dereferenceable(64) %0, ptr noundef %1) unnamed_addr #7 comdat align 2 {
  %3 = alloca ptr, align 8
  %4 = alloca ptr, align 8
  store ptr %0, ptr %3, align 8, !tbaa !67
  store ptr %1, ptr %4, align 8, !tbaa !65
  %5 = load ptr, ptr %3, align 8
  %6 = load ptr, ptr %4, align 8
  %7 = getelementptr inbounds ptr, ptr %6, i64 1
  call void @_ZN2cv6legacy8tracking7TrackerC2Ev(ptr noundef nonnull align 8 dereferenceable(64) %5, ptr noundef %7)
  %8 = load ptr, ptr %6, align 8
  store ptr %8, ptr %5, align 8, !tbaa !22
  %9 = getelementptr inbounds ptr, ptr %6, i64 3
  %10 = load ptr, ptr %9, align 8
  %11 = load ptr, ptr %5, align 8, !tbaa !22
  %12 = getelementptr i8, ptr %11, i64 -80
  %13 = load i64, ptr %12, align 8
  %14 = getelementptr inbounds i8, ptr %5, i64 %13
  store ptr %10, ptr %14, align 8, !tbaa !22
  ret void
}

; Function Attrs: mustprogress uwtable
define hidden void @_ZN2cv6legacy8tracking19TrackerBoostingImplC2ERKNS1_15TrackerBoosting6ParamsE(ptr noundef nonnull align 8 dereferenceable(84) %0, ptr noundef %1, ptr noundef nonnull align 4 dereferenceable(20) %2) unnamed_addr #5 align 2 {
  %4 = alloca ptr, align 8
  %5 = alloca ptr, align 8
  %6 = alloca ptr, align 8
  store ptr %0, ptr %4, align 8, !tbaa !41
  store ptr %1, ptr %5, align 8, !tbaa !65
  store ptr %2, ptr %6, align 8, !tbaa !3
  %7 = load ptr, ptr %4, align 8
  %8 = load ptr, ptr %5, align 8
  %9 = getelementptr inbounds ptr, ptr %8, i64 1
  call void @_ZN2cv6legacy8tracking15TrackerBoostingC2Ev(ptr noundef nonnull align 8 dereferenceable(64) %7, ptr noundef %9)
  %10 = load ptr, ptr %8, align 8
  store ptr %10, ptr %7, align 8, !tbaa !22
  %11 = getelementptr inbounds ptr, ptr %8, i64 5
  %12 = load ptr, ptr %11, align 8
  %13 = load ptr, ptr %7, align 8, !tbaa !22
  %14 = getelementptr i8, ptr %13, i64 -80
  %15 = load i64, ptr %14, align 8
  %16 = getelementptr inbounds i8, ptr %7, i64 %15
  store ptr %12, ptr %16, align 8, !tbaa !22
  %17 = getelementptr inbounds nuw %"class.cv::legacy::tracking::TrackerBoostingImpl", ptr %7, i32 0, i32 1
  %18 = load ptr, ptr %6, align 8, !tbaa !3
  call void @llvm.memcpy.p0.p0.i64(ptr align 8 %17, ptr align 4 %18, i64 20, i1 false), !tbaa.struct !43
  %19 = getelementptr inbounds nuw %"class.cv::legacy::tracking::Tracker", ptr %7, i32 0, i32 1
  store i8 0, ptr %19, align 8, !tbaa !44
  ret void
}