; Function Attrs: mustprogress uwtable
define hidden void @_ZN2cv6legacy8tracking19TrackerBoostingImplC2ERKNS1_15TrackerBoosting6ParamsE(ptr noundef nonnull align 8 dereferenceable(84) %0, ptr noundef %1, ptr noundef nonnull readonly align 4 captures(none) dereferenceable(20) %2) unnamed_addr #4 align 2 {
  %4 = getelementptr inbounds nuw i8, ptr %1, i64 8
  %5 = getelementptr inbounds nuw i8, ptr %1, i64 16
  tail call void @_ZN2cv6legacy8tracking7TrackerC2Ev(ptr noundef nonnull align 8 dereferenceable(64) %0, ptr noundef nonnull %5)
  %6 = load ptr, ptr %4, align 8
  store ptr %6, ptr %0, align 8, !tbaa !22
  %7 = getelementptr inbounds nuw i8, ptr %1, i64 32
  %8 = load ptr, ptr %7, align 8
  %9 = getelementptr i8, ptr %6, i64 -80
  %10 = load i64, ptr %9, align 8
  %11 = getelementptr inbounds i8, ptr %0, i64 %10
  store ptr %8, ptr %11, align 8, !tbaa !22
  %12 = load ptr, ptr %1, align 8
  store ptr %12, ptr %0, align 8, !tbaa !22
  %13 = getelementptr inbounds nuw i8, ptr %1, i64 40
  %14 = load ptr, ptr %13, align 8
  %15 = getelementptr i8, ptr %12, i64 -80
  %16 = load i64, ptr %15, align 8
  %17 = getelementptr inbounds i8, ptr %0, i64 %16
  store ptr %14, ptr %17, align 8, !tbaa !22
  %18 = getelementptr inbounds nuw i8, ptr %0, i64 64
  tail call void @llvm.memcpy.p0.p0.i64(ptr noundef nonnull align 8 dereferenceable(20) %18, ptr noundef nonnull align 4 dereferenceable(20) %2, i64 20, i1 false), !tbaa.struct !35
  %19 = getelementptr inbounds nuw i8, ptr %0, i64 8
  store i8 0, ptr %19, align 8, !tbaa !36
  ret void
}